; Function Attrs: nounwind uwtable
define noalias noundef ptr @Gia_ManComputeDistance(ptr noundef %0, i32 noundef %1, ptr noundef %2, i32 noundef %3) local_unnamed_addr #2 {
  %5 = getelementptr inbounds nuw i8, ptr %0, i64 248
  %6 = load ptr, ptr %5, align 8
  %.not = icmp eq ptr %6, null
  br i1 %.not, label %9, label %7

7:                                                ; preds = %4
  %8 = tail call ptr @Gia_ManComputeDistanceInt(ptr noundef nonnull %0, i32 noundef %1, ptr noundef %2, i32 noundef %3)
  br label %11

9:                                                ; preds = %4
  tail call void @Gia_ManStaticFanoutStart(ptr noundef nonnull %0) #36
  %10 = tail call ptr @Gia_ManComputeDistanceInt(ptr noundef nonnull %0, i32 noundef %1, ptr noundef %2, i32 noundef %3)
  tail call void @Gia_ManStaticFanoutStop(ptr noundef nonnull %0) #36
  br label %11

11:                                               ; preds = %9, %7
  %.0 = phi ptr [ %8, %7 ], [ %10, %9 ]
  ret ptr %.0
}